; ModuleID = '38/1170.c'
source_filename = "38/1170.c"
target datalayout = "e-m:e-p270:32:32-p271:32:32-p272:64:64-i64:64-f80:128-n8:16:32:64-S128"
target triple = "x86_64-pc-linux-gnu"

@.str = private unnamed_addr constant [3 x i8] c"%d\00", align 1
@.str.1 = private unnamed_addr constant [4 x i8] c"%lf\00", align 1
@.str.2 = private unnamed_addr constant [7 x i8] c"%.5lf\0A\00", align 1

; Function Attrs: noinline nounwind uwtable
define dso_local void @main() #0 {
  %1 = alloca i32, align 4
  %2 = alloca i32*, align 8
  %3 = alloca i32, align 4
  %4 = alloca i32, align 4
  %5 = alloca i32, align 4
  %6 = alloca [100 x double*], align 16
  %7 = alloca double*, align 8
  %8 = alloca double*, align 8
  %9 = alloca double, align 8
  %10 = alloca double, align 8
  %11 = call i32 (i8*, ...) @__isoc99_scanf(i8* getelementptr inbounds ([3 x i8], [3 x i8]* @.str, i64 0, i64 0), i32* %1)
  %12 = load i32, i32* %1, align 4
  %13 = sext i32 %12 to i64
  %14 = mul i64 4, %13
  %15 = call noalias i8* @malloc(i64 %14) #3
  %16 = bitcast i8* %15 to i32*
  store i32* %16, i32** %2, align 8
  %17 = load i32, i32* %1, align 4
  %18 = sext i32 %17 to i64
  %19 = mul i64 8, %18
  %20 = call noalias i8* @malloc(i64 %19) #3
  %21 = bitcast i8* %20 to double*
  store double* %21, double** %7, align 8
  %22 = load i32, i32* %1, align 4
  %23 = sext i32 %22 to i64
  %24 = mul i64 8, %23
  %25 = call noalias i8* @malloc(i64 %24) #3
  %26 = bitcast i8* %25 to double*
  store double* %26, double** %8, align 8
  store i32 0, i32* %5, align 4
  br label %27

27:                                               ; preds = %108, %0
  %28 = load i32, i32* %5, align 4
  %29 = load i32, i32* %1, align 4
  %30 = icmp slt i32 %28, %29
  br i1 %30, label %31, label %111

31:                                               ; preds = %27
  %32 = load double*, double** %7, align 8
  %33 = load i32, i32* %5, align 4
  %34 = sext i32 %33 to i64
  %35 = getelementptr inbounds double, double* %32, i64 %34
  store double 0.000000e+00, double* %35, align 8
  %36 = load i32*, i32** %2, align 8
  %37 = load i32, i32* %5, align 4
  %38 = sext i32 %37 to i64
  %39 = getelementptr inbounds i32, i32* %36, i64 %38
  %40 = call i32 (i8*, ...) @__isoc99_scanf(i8* getelementptr inbounds ([3 x i8], [3 x i8]* @.str, i64 0, i64 0), i32* %39)
  %41 = load i32*, i32** %2, align 8
  %42 = load i32, i32* %5, align 4
  %43 = sext i32 %42 to i64
  %44 = getelementptr inbounds i32, i32* %41, i64 %43
  %45 = load i32, i32* %44, align 4
  %46 = sext i32 %45 to i64
  %47 = mul i64 8, %46
  %48 = call noalias i8* @malloc(i64 %47) #3
  %49 = bitcast i8* %48 to double*
  %50 = load i32, i32* %5, align 4
  %51 = sext i32 %50 to i64
  %52 = getelementptr inbounds [100 x double*], [100 x double*]* %6, i64 0, i64 %51
  store double* %49, double** %52, align 8
  store i32 0, i32* %3, align 4
  br label %53

53:                                               ; preds = %88, %31
  %54 = load i32, i32* %3, align 4
  %55 = load i32*, i32** %2, align 8
  %56 = load i32, i32* %5, align 4
  %57 = sext i32 %56 to i64
  %58 = getelementptr inbounds i32, i32* %55, i64 %57
  %59 = load i32, i32* %58, align 4
  %60 = icmp slt i32 %54, %59
  br i1 %60, label %61, label %91

61:                                               ; preds = %53
  %62 = load i32, i32* %5, align 4
  %63 = sext i32 %62 to i64
  %64 = getelementptr inbounds [100 x double*], [100 x double*]* %6, i64 0, i64 %63
  %65 = load double*, double** %64, align 8
  %66 = load i32, i32* %3, align 4
  %67 = sext i32 %66 to i64
  %68 = getelementptr inbounds double, double* %65, i64 %67
  %69 = call i32 (i8*, ...) @__isoc99_scanf(i8* getelementptr inbounds ([4 x i8], [4 x i8]* @.str.1, i64 0, i64 0), double* %68)
  %70 = load double*, double** %7, align 8
  %71 = load i32, i32* %5, align 4
  %72 = sext i32 %71 to i64
  %73 = getelementptr inbounds double, double* %70, i64 %72
  %74 = load double, double* %73, align 8
  %75 = load i32, i32* %5, align 4
  %76 = sext i32 %75 to i64
  %77 = getelementptr inbounds [100 x double*], [100 x double*]* %6, i64 0, i64 %76
  %78 = load double*, double** %77, align 8
  %79 = load i32, i32* %3, align 4
  %80 = sext i32 %79 to i64
  %81 = getelementptr inbounds double, double* %78, i64 %80
  %82 = load double, double* %81, align 8
  %83 = fadd double %74, %82
  %84 = load double*, double** %7, align 8
  %85 = load i32, i32* %5, align 4
  %86 = sext i32 %85 to i64
  %87 = getelementptr inbounds double, double* %84, i64 %86
  store double %83, double* %87, align 8
  br label %88

88:                                               ; preds = %61
  %89 = load i32, i32* %3, align 4
  %90 = add nsw i32 %89, 1
  store i32 %90, i32* %3, align 4
  br label %53

91:                                               ; preds = %53
  %92 = load double*, double** %7, align 8
  %93 = load i32, i32* %5, align 4
  %94 = sext i32 %93 to i64
  %95 = getelementptr inbounds double, double* %92, i64 %94
  %96 = load double, double* %95, align 8
  %97 = load i32*, i32** %2, align 8
  %98 = load i32, i32* %5, align 4
  %99 = sext i32 %98 to i64
  %100 = getelementptr inbounds i32, i32* %97, i64 %99
  %101 = load i32, i32* %100, align 4
  %102 = sitofp i32 %101 to double
  %103 = fdiv double %96, %102
  %104 = load double*, double** %8, align 8
  %105 = load i32, i32* %5, align 4
  %106 = sext i32 %105 to i64
  %107 = getelementptr inbounds double, double* %104, i64 %106
  store double %103, double* %107, align 8
  br label %108

108:                                              ; preds = %91
  %109 = load i32, i32* %5, align 4
  %110 = add nsw i32 %109, 1
  store i32 %110, i32* %5, align 4
  br label %27

111:                                              ; preds = %27
  store i32 0, i32* %5, align 4
  br label %112

112:                                              ; preds = %188, %111
  %113 = load i32, i32* %5, align 4
  %114 = load i32, i32* %1, align 4
  %115 = icmp slt i32 %113, %114
  br i1 %115, label %116, label %191

116:                                              ; preds = %112
  %117 = load double*, double** %7, align 8
  %118 = load i32, i32* %5, align 4
  %119 = sext i32 %118 to i64
  %120 = getelementptr inbounds double, double* %117, i64 %119
  store double 0.000000e+00, double* %120, align 8
  store i32 0, i32* %3, align 4
  br label %121

121:                                              ; preds = %169, %116
  %122 = load i32, i32* %3, align 4
  %123 = load i32*, i32** %2, align 8
  %124 = load i32, i32* %5, align 4
  %125 = sext i32 %124 to i64
  %126 = getelementptr inbounds i32, i32* %123, i64 %125
  %127 = load i32, i32* %126, align 4
  %128 = icmp slt i32 %122, %127
  br i1 %128, label %129, label %172

129:                                              ; preds = %121
  %130 = load double*, double** %7, align 8
  %131 = load i32, i32* %5, align 4
  %132 = sext i32 %131 to i64
  %133 = getelementptr inbounds double, double* %130, i64 %132
  %134 = load double, double* %133, align 8
  %135 = load i32, i32* %5, align 4
  %136 = sext i32 %135 to i64
  %137 = getelementptr inbounds [100 x double*], [100 x double*]* %6, i64 0, i64 %136
  %138 = load double*, double** %137, align 8
  %139 = load i32, i32* %3, align 4
  %140 = sext i32 %139 to i64
  %141 = getelementptr inbounds double, double* %138, i64 %140
  %142 = load double, double* %141, align 8
  %143 = load double*, double** %8, align 8
  %144 = load i32, i32* %5, align 4
  %145 = sext i32 %144 to i64
  %146 = getelementptr inbounds double, double* %143, i64 %145
  %147 = load double, double* %146, align 8
  %148 = fsub double %142, %147
  %149 = load i32, i32* %5, align 4
  %150 = sext i32 %149 to i64
  %151 = getelementptr inbounds [100 x double*], [100 x double*]* %6, i64 0, i64 %150
  %152 = load double*, double** %151, align 8
  %153 = load i32, i32* %3, align 4
  %154 = sext i32 %153 to i64
  %155 = getelementptr inbounds double, double* %152, i64 %154
  %156 = load double, double* %155, align 8
  %157 = load double*, double** %8, align 8
  %158 = load i32, i32* %5, align 4
  %159 = sext i32 %158 to i64
  %160 = getelementptr inbounds double, double* %157, i64 %159
  %161 = load double, double* %160, align 8
  %162 = fsub double %156, %161
  %163 = fmul double %148, %162
  %164 = fadd double %134, %163
  %165 = load double*, double** %7, align 8
  %166 = load i32, i32* %5, align 4
  %167 = sext i32 %166 to i64
  %168 = getelementptr inbounds double, double* %165, i64 %167
  store double %164, double* %168, align 8
  br label %169

169:                                              ; preds = %129
  %170 = load i32, i32* %3, align 4
  %171 = add nsw i32 %170, 1
  store i32 %171, i32* %3, align 4
  br label %121

172:                                              ; preds = %121
  %173 = load double*, double** %7, align 8
  %174 = load i32, i32* %5, align 4
  %175 = sext i32 %174 to i64
  %176 = getelementptr inbounds double, double* %173, i64 %175
  %177 = load double, double* %176, align 8
  %178 = load i32*, i32** %2, align 8
  %179 = load i32, i32* %5, align 4
  %180 = sext i32 %179 to i64
  %181 = getelementptr inbounds i32, i32* %178, i64 %180
  %182 = load i32, i32* %181, align 4
  %183 = sitofp i32 %182 to double
  %184 = fdiv double %177, %183
  %185 = call double @sqrt(double %184) #3
  store double %185, double* %9, align 8
  %186 = load double, double* %9, align 8
  %187 = call i32 (i8*, ...) @printf(i8* getelementptr inbounds ([7 x i8], [7 x i8]* @.str.2, i64 0, i64 0), double %186)
  br label %188

188:                                              ; preds = %172
  %189 = load i32, i32* %5, align 4
  %190 = add nsw i32 %189, 1
  store i32 %190, i32* %5, align 4
  br label %112

191:                                              ; preds = %112
  ret void
}

declare dso_local i32 @__isoc99_scanf(i8*, ...) #1

; Function Attrs: nounwind
declare dso_local noalias i8* @malloc(i64) #2

; Function Attrs: nounwind
declare dso_local double @sqrt(double) #2

declare dso_local i32 @printf(i8*, ...) #1


!llvm.module.flags = !{!0}
!llvm.ident = !{!1}

!0 = !{i32 1, !"wchar_size", i32 4}
!1 = !{!"clang version 10.0.0-4ubuntu1 "}
